; Function Attrs: nounwind uwtable
define hidden i64 @SSL_AEAD_CTX_max_overhead(ptr noundef readonly captures(address_is_null) %0) local_unnamed_addr #0 {
  %2 = icmp eq ptr %0, null
  br i1 %2, label %14, label %3

3:                                                ; preds = %1
  %4 = getelementptr inbounds nuw i8, ptr %0, i64 8
  %5 = load ptr, ptr %4, align 8, !tbaa !26
  %6 = tail call i64 @EVP_AEAD_max_overhead(ptr noundef %5) #8
  %7 = getelementptr inbounds nuw i8, ptr %0, i64 38
  %8 = load i8, ptr %7, align 2, !tbaa !22
  %.not4.i = icmp eq i8 %8, 0
  br i1 %.not4.i, label %SSL_AEAD_CTX_explicit_nonce_len.exit, label %9

9:                                                ; preds = %3
  %10 = getelementptr inbounds nuw i8, ptr %0, i64 37
  %11 = load i8, ptr %10, align 1, !tbaa !15
  %12 = zext i8 %11 to i64
  br label %SSL_AEAD_CTX_explicit_nonce_len.exit

SSL_AEAD_CTX_explicit_nonce_len.exit:             ; preds = %3, %9
  %.0.i = phi i64 [ %12, %9 ], [ 0, %3 ]
  %13 = add i64 %.0.i, %6
  br label %14

14:                                               ; preds = %1, %SSL_AEAD_CTX_explicit_nonce_len.exit
  %.0 = phi i64 [ %13, %SSL_AEAD_CTX_explicit_nonce_len.exit ], [ 0, %1 ]
  ret i64 %.0
}